; Function Attrs: noreturn nounwind uwtable
define hidden noundef i64 @prof_bt_count() local_unnamed_addr #4 {
entry:
  %0 = tail call align 8 ptr @llvm.threadlocal.address.p0(ptr align 8 @tsd_tls)
  %state.i.i = getelementptr inbounds i8, ptr %0, i64 832
  %1 = load i8, ptr %state.i.i, align 8
  %cmp6.i = icmp ne i8 %1, 0
  tail call void @llvm.assume(i1 %cmp6.i)
  %call13.i = tail call ptr @tsd_fetch_slow(ptr noundef nonnull %0, i1 noundef zeroext false) #11
  unreachable
}